target datalayout = "e-m:e-p270:32:32-p271:32:32-p272:64:64-i64:64-i128:128-f80:128-n8:16:32:64-S128"
target triple = "x86_64-pc-linux-gnu"

%struct._zval_struct = type { %union._zend_value, %union.anon.3, %union.anon.6 }
%union._zend_value = type { i64 }
%union.anon.3 = type { i32 }
%union.anon.6 = type { i32 }
%struct._zend_array = type { %struct._zend_refcounted_h, %union.anon.8, i32, %union.anon.10, i32, i32, i32, i32, i64, ptr }
%struct._zend_refcounted_h = type { i32, %union.anon.1 }
%union.anon.1 = type { i32 }
%union.anon.8 = type { i32 }
%union.anon.10 = type { ptr }
%struct._pdo_stmt_t = type { ptr, ptr, [6 x i8], i16, ptr, ptr, ptr, ptr, i32, i32, %union.anon, ptr, ptr, ptr, i64, ptr, ptr, ptr, %struct._zend_object }
%union.anon = type { %struct.anon.0 }
%struct.anon.0 = type { %struct._zend_fcall_info_cache }
%struct._zend_fcall_info_cache = type { ptr, ptr, ptr, ptr, ptr }
%struct._zend_object = type { %struct._zend_refcounted_h, i32, i32, ptr, ptr, ptr, [1 x %struct._zval_struct] }
%struct._pdo_dbh_t = type { ptr, ptr, ptr, ptr, i32, ptr, i64, [6 x i8], i32, i32, i32, ptr, i64, i32, [2 x ptr], ptr, ptr, %struct._zval_struct, ptr, ptr, i32 }
%struct._zend_string = type { %struct._zend_refcounted_h, i64, i64, [1 x i8] }
%struct._zend_class_entry = type { i8, ptr, %union.anon.7, i32, i32, i32, i32, ptr, ptr, ptr, %struct._zend_array, %struct._zend_array, %struct._zend_array, ptr, ptr, ptr, ptr, ptr, ptr, ptr, ptr, ptr, ptr, ptr, ptr, ptr, ptr, ptr, ptr, ptr, ptr, ptr, %union.anon.11, ptr, ptr, ptr, ptr, i32, i32, i32, i32, %union.anon.12, ptr, ptr, ptr, ptr, i32, ptr, ptr, %union.anon.13 }
%union.anon.7 = type { ptr }
%union.anon.11 = type { ptr }
%union.anon.12 = type { ptr }
%union.anon.13 = type { %struct.anon.14 }
%struct.anon.14 = type { ptr, i32, i32 }

; Function Attrs: alwaysinline nounwind uwtable
define internal i32 @zend_gc_delref(ptr noundef %0) #3 {
  %2 = alloca ptr, align 8
  store ptr %0, ptr %2, align 8, !tbaa !109
  %3 = load ptr, ptr %2, align 8, !tbaa !109
  %4 = getelementptr inbounds nuw %struct._zend_refcounted_h, ptr %3, i32 0, i32 0
  %5 = load i32, ptr %4, align 4, !tbaa !111
  %6 = icmp ugt i32 %5, 0
  call void @llvm.assume(i1 %6)
  br label %7

7:                                                ; preds = %1
  br label %8

8:                                                ; preds = %7
  %9 = load ptr, ptr %2, align 8, !tbaa !109
  %10 = getelementptr inbounds nuw %struct._zend_refcounted_h, ptr %9, i32 0, i32 0
  %11 = load i32, ptr %10, align 4, !tbaa !111
  %12 = add i32 %11, -1
  store i32 %12, ptr %10, align 4, !tbaa !111
  ret i32 %12
}

; Function Attrs: alwaysinline nounwind uwtable
define internal i32 @zval_gc_flags(i32 noundef %0) #3 {
  %2 = alloca i32, align 4
  store i32 %0, ptr %2, align 4, !tbaa !26
  %3 = load i32, ptr %2, align 4, !tbaa !26
  %4 = lshr i32 %3, 0
  %5 = and i32 %4, 1008
  ret i32 %5
}

; Function Attrs: alwaysinline nounwind uwtable
define internal void @zend_string_release_ex(ptr noundef %0, i1 noundef zeroext %1) #3 {
  %3 = alloca ptr, align 8
  %4 = alloca i8, align 1
  store ptr %0, ptr %3, align 8, !tbaa !39
  %5 = zext i1 %1 to i8
  store i8 %5, ptr %4, align 1, !tbaa !53
  %6 = load ptr, ptr %3, align 8, !tbaa !39
  %7 = getelementptr inbounds nuw %struct._zend_string, ptr %6, i32 0, i32 0
  %8 = getelementptr inbounds nuw %struct._zend_refcounted_h, ptr %7, i32 0, i32 1
  %9 = load i32, ptr %8, align 4, !tbaa !45
  %10 = call i32 @zval_gc_flags(i32 noundef %9)
  %11 = and i32 %10, 64
  %12 = icmp ne i32 %11, 0
  br i1 %12, label %27, label %13

13:                                               ; preds = %2
  %14 = load ptr, ptr %3, align 8, !tbaa !39
  %15 = getelementptr inbounds nuw %struct._zend_string, ptr %14, i32 0, i32 0
  %16 = call i32 @zend_gc_delref(ptr noundef %15)
  %17 = icmp eq i32 %16, 0
  br i1 %17, label %18, label %26

18:                                               ; preds = %13
  %19 = load i8, ptr %4, align 1, !tbaa !53, !range !54, !noundef !55
  %20 = trunc i8 %19 to i1
  br i1 %20, label %21, label %23

21:                                               ; preds = %18
  %22 = load ptr, ptr %3, align 8, !tbaa !39
  call void @free(ptr noundef %22) #14
  br label %25

23:                                               ; preds = %18
  %24 = load ptr, ptr %3, align 8, !tbaa !39
  call void @_efree(ptr noundef %24)
  br label %25

25:                                               ; preds = %23, %21
  br label %26

26:                                               ; preds = %25, %13
  br label %27

27:                                               ; preds = %26, %2
  ret void
}

; Function Attrs: inlinehint nounwind uwtable
define internal ptr @php_pdo_dbh_fetch_object(ptr noundef %0) #7 {
  %2 = alloca ptr, align 8
  store ptr %0, ptr %2, align 8, !tbaa !108
  %3 = load ptr, ptr %2, align 8, !tbaa !108
  %4 = getelementptr inbounds i8, ptr %3, i64 -8
  ret ptr %4
}

; Function Attrs: inlinehint nounwind uwtable
define internal ptr @php_pdo_stmt_fetch_object(ptr noundef %0) #7 {
  %2 = alloca ptr, align 8
  store ptr %0, ptr %2, align 8, !tbaa !108
  %3 = load ptr, ptr %2, align 8, !tbaa !108
  %4 = getelementptr inbounds i8, ptr %3, i64 -160
  ret ptr %4
}

; Function Attrs: alwaysinline nounwind uwtable
define internal ptr @zend_hash_find_ptr(ptr noundef %0, ptr noundef %1) #3 {
  %3 = alloca ptr, align 8
  %4 = alloca ptr, align 8
  %5 = alloca ptr, align 8
  %6 = alloca ptr, align 8
  %7 = alloca i32, align 4
  store ptr %0, ptr %4, align 8, !tbaa !46
  store ptr %1, ptr %5, align 8, !tbaa !39
  call void @llvm.lifetime.start.p0(i64 8, ptr %6) #14
  %8 = load ptr, ptr %4, align 8, !tbaa !46
  %9 = load ptr, ptr %5, align 8, !tbaa !39
  %10 = call ptr @zend_hash_find(ptr noundef %8, ptr noundef %9)
  store ptr %10, ptr %6, align 8, !tbaa !47
  %11 = load ptr, ptr %6, align 8, !tbaa !47
  %12 = icmp ne ptr %11, null
  br i1 %12, label %13, label %21

13:                                               ; preds = %2
  %14 = load ptr, ptr %6, align 8, !tbaa !47
  %15 = getelementptr inbounds nuw %struct._zval_struct, ptr %14, i32 0, i32 0
  %16 = load ptr, ptr %15, align 8, !tbaa !45
  %17 = icmp ne ptr %16, null
  call void @llvm.assume(i1 %17)
  %18 = load ptr, ptr %6, align 8, !tbaa !47
  %19 = getelementptr inbounds nuw %struct._zval_struct, ptr %18, i32 0, i32 0
  %20 = load ptr, ptr %19, align 8, !tbaa !45
  store ptr %20, ptr %3, align 8
  store i32 1, ptr %7, align 4
  br label %22

21:                                               ; preds = %2
  store ptr null, ptr %3, align 8
  store i32 1, ptr %7, align 4
  br label %22

22:                                               ; preds = %21, %13
  call void @llvm.lifetime.end.p0(i64 8, ptr %6) #14
  %23 = load ptr, ptr %3, align 8
  ret ptr %23
}

; Function Attrs: alwaysinline nounwind uwtable
define internal ptr @zend_string_tolower(ptr noundef %0) #3 {
  %2 = alloca ptr, align 8
  store ptr %0, ptr %2, align 8, !tbaa !39
  %3 = load ptr, ptr %2, align 8, !tbaa !39
  %4 = call ptr @zend_string_tolower_ex(ptr noundef %3, i1 noundef zeroext false)
  ret ptr %4
}

; Function Attrs: nounwind uwtable
define internal ptr @dbstmt_method_get(ptr noundef %0, ptr noundef %1, ptr noundef %2) #0 {
  %4 = alloca ptr, align 8
  %5 = alloca ptr, align 8
  %6 = alloca ptr, align 8
  %7 = alloca ptr, align 8
  %8 = alloca ptr, align 8
  %9 = alloca ptr, align 8
  %10 = alloca ptr, align 8
  %11 = alloca ptr, align 8
  %12 = alloca i32, align 4
  store ptr %0, ptr %5, align 8, !tbaa !192
  store ptr %1, ptr %6, align 8, !tbaa !39
  store ptr %2, ptr %7, align 8, !tbaa !47
  call void @llvm.lifetime.start.p0(i64 8, ptr %8) #14
  store ptr null, ptr %8, align 8, !tbaa !193
  call void @llvm.lifetime.start.p0(i64 8, ptr %9) #14
  call void @llvm.lifetime.start.p0(i64 8, ptr %10) #14
  %13 = load ptr, ptr %5, align 8, !tbaa !192
  %14 = load ptr, ptr %13, align 8, !tbaa !108
  store ptr %14, ptr %10, align 8, !tbaa !108
  %15 = load ptr, ptr %6, align 8, !tbaa !39
  %16 = call ptr @zend_string_tolower(ptr noundef %15)
  store ptr %16, ptr %9, align 8, !tbaa !39
  %17 = load ptr, ptr %10, align 8, !tbaa !108
  %18 = getelementptr inbounds nuw %struct._zend_object, ptr %17, i32 0, i32 3
  %19 = load ptr, ptr %18, align 8, !tbaa !56
  %20 = getelementptr inbounds nuw %struct._zend_class_entry, ptr %19, i32 0, i32 10
  %21 = load ptr, ptr %9, align 8, !tbaa !39
  %22 = call ptr @zend_hash_find_ptr(ptr noundef %20, ptr noundef %21)
  store ptr %22, ptr %8, align 8, !tbaa !193
  %23 = icmp eq ptr %22, null
  br i1 %23, label %24, label %71

24:                                               ; preds = %3
  call void @llvm.lifetime.start.p0(i64 8, ptr %11) #14
  %25 = load ptr, ptr %10, align 8, !tbaa !108
  %26 = call ptr @php_pdo_stmt_fetch_object(ptr noundef %25)
  store ptr %26, ptr %11, align 8, !tbaa !4
  %27 = load ptr, ptr %11, align 8, !tbaa !4
  %28 = getelementptr inbounds nuw %struct._pdo_stmt_t, ptr %27, i32 0, i32 12
  %29 = load ptr, ptr %28, align 8, !tbaa !30
  %30 = icmp ne ptr %29, null
  br i1 %30, label %32, label %31

31:                                               ; preds = %24
  store i32 2, ptr %12, align 4
  br label %68

32:                                               ; preds = %24
  %33 = load ptr, ptr %11, align 8, !tbaa !4
  %34 = getelementptr inbounds nuw %struct._pdo_stmt_t, ptr %33, i32 0, i32 12
  %35 = load ptr, ptr %34, align 8, !tbaa !30
  %36 = getelementptr inbounds nuw %struct._pdo_dbh_t, ptr %35, i32 0, i32 14
  %37 = getelementptr inbounds [2 x ptr], ptr %36, i64 0, i64 1
  %38 = load ptr, ptr %37, align 8, !tbaa !46
  %39 = icmp ne ptr %38, null
  br i1 %39, label %56, label %40

40:                                               ; preds = %32
  %41 = load ptr, ptr %11, align 8, !tbaa !4
  %42 = getelementptr inbounds nuw %struct._pdo_stmt_t, ptr %41, i32 0, i32 13
  %43 = load ptr, ptr %42, align 8, !tbaa !162
  %44 = call ptr @php_pdo_dbh_fetch_object(ptr noundef %43)
  %45 = call zeroext i1 @pdo_hash_methods(ptr noundef %44, i32 noundef 1)
  br i1 %45, label %46, label %54

46:                                               ; preds = %40
  %47 = load ptr, ptr %11, align 8, !tbaa !4
  %48 = getelementptr inbounds nuw %struct._pdo_stmt_t, ptr %47, i32 0, i32 12
  %49 = load ptr, ptr %48, align 8, !tbaa !30
  %50 = getelementptr inbounds nuw %struct._pdo_dbh_t, ptr %49, i32 0, i32 14
  %51 = getelementptr inbounds [2 x ptr], ptr %50, i64 0, i64 1
  %52 = load ptr, ptr %51, align 8, !tbaa !46
  %53 = icmp ne ptr %52, null
  br i1 %53, label %55, label %54

54:                                               ; preds = %46, %40
  store i32 2, ptr %12, align 4
  br label %68

55:                                               ; preds = %46
  br label %56

56:                                               ; preds = %55, %32
  %57 = load ptr, ptr %11, align 8, !tbaa !4
  %58 = getelementptr inbounds nuw %struct._pdo_stmt_t, ptr %57, i32 0, i32 12
  %59 = load ptr, ptr %58, align 8, !tbaa !30
  %60 = getelementptr inbounds nuw %struct._pdo_dbh_t, ptr %59, i32 0, i32 14
  %61 = getelementptr inbounds [2 x ptr], ptr %60, i64 0, i64 1
  %62 = load ptr, ptr %61, align 8, !tbaa !46
  %63 = load ptr, ptr %9, align 8, !tbaa !39
  %64 = call ptr @zend_hash_find_ptr(ptr noundef %62, ptr noundef %63)
  store ptr %64, ptr %8, align 8, !tbaa !193
  %65 = icmp eq ptr %64, null
  br i1 %65, label %66, label %67

66:                                               ; preds = %56
  store i32 2, ptr %12, align 4
  br label %68

67:                                               ; preds = %56
  store i32 0, ptr %12, align 4
  br label %68

68:                                               ; preds = %66, %54, %31, %67
  call void @llvm.lifetime.end.p0(i64 8, ptr %11) #14
  %69 = load i32, ptr %12, align 4
  switch i32 %69, label %83 [
    i32 0, label %70
    i32 2, label %72
  ]

70:                                               ; preds = %68
  br label %71

71:                                               ; preds = %70, %3
  br label %72

72:                                               ; preds = %71, %68
  %73 = load ptr, ptr %9, align 8, !tbaa !39
  call void @zend_string_release_ex(ptr noundef %73, i1 noundef zeroext false)
  %74 = load ptr, ptr %8, align 8, !tbaa !193
  %75 = icmp ne ptr %74, null
  br i1 %75, label %81, label %76

76:                                               ; preds = %72
  %77 = load ptr, ptr %5, align 8, !tbaa !192
  %78 = load ptr, ptr %6, align 8, !tbaa !39
  %79 = load ptr, ptr %7, align 8, !tbaa !47
  %80 = call ptr @zend_std_get_method(ptr noundef %77, ptr noundef %78, ptr noundef %79)
  store ptr %80, ptr %8, align 8, !tbaa !193
  br label %81

81:                                               ; preds = %76, %72
  %82 = load ptr, ptr %8, align 8, !tbaa !193
  store ptr %82, ptr %4, align 8
  store i32 1, ptr %12, align 4
  br label %83

83:                                               ; preds = %81, %68
  call void @llvm.lifetime.end.p0(i64 8, ptr %10) #14
  call void @llvm.lifetime.end.p0(i64 8, ptr %9) #14
  call void @llvm.lifetime.end.p0(i64 8, ptr %8) #14
  %84 = load ptr, ptr %4, align 8
  ret ptr %84
}