; Function Attrs: nounwind uwtable
define internal ptr @dbstmt_method_get(ptr noundef %0, ptr noundef %1, ptr noundef %2) #0 {
  %4 = load ptr, ptr %0, align 8, !tbaa !179
  %5 = tail call ptr @zend_string_tolower_ex(ptr noundef %1, i1 noundef zeroext false) #17
  %6 = getelementptr inbounds nuw i8, ptr %4, i64 16
  %7 = load ptr, ptr %6, align 8, !tbaa !45
  %8 = getelementptr inbounds nuw i8, ptr %7, i64 64
  %9 = tail call ptr @zend_hash_find(ptr noundef nonnull %8, ptr noundef %5) #17
  %.not.i29 = icmp eq ptr %9, null
  br i1 %.not.i29, label %10, label %zend_hash_find_ptr.exit.sink.split

10:                                               ; preds = %3
  %11 = getelementptr inbounds i8, ptr %4, i64 -48
  %12 = load ptr, ptr %11, align 8, !tbaa !27
  %.not = icmp eq ptr %12, null
  br i1 %.not, label %zend_hash_find_ptr.exit, label %13

13:                                               ; preds = %10
  %14 = getelementptr inbounds nuw i8, ptr %12, i64 112
  %15 = load ptr, ptr %14, align 8, !tbaa !92
  %.not25 = icmp eq ptr %15, null
  br i1 %.not25, label %16, label %25

16:                                               ; preds = %13
  %17 = getelementptr inbounds i8, ptr %4, i64 -40
  %18 = load ptr, ptr %17, align 8, !tbaa !149
  %19 = getelementptr inbounds i8, ptr %18, i64 -8
  %20 = tail call zeroext i1 @pdo_hash_methods(ptr noundef nonnull %19, i32 noundef 1) #17
  br i1 %20, label %21, label %zend_hash_find_ptr.exit

21:                                               ; preds = %16
  %22 = load ptr, ptr %11, align 8, !tbaa !27
  %23 = getelementptr inbounds nuw i8, ptr %22, i64 112
  %24 = load ptr, ptr %23, align 8, !tbaa !92
  %.not26 = icmp eq ptr %24, null
  br i1 %.not26, label %zend_hash_find_ptr.exit, label %25

25:                                               ; preds = %21, %13
  %26 = phi ptr [ %24, %21 ], [ %15, %13 ]
  %27 = tail call ptr @zend_hash_find(ptr noundef nonnull %26, ptr noundef %5) #17
  %.not.i = icmp eq ptr %27, null
  br i1 %.not.i, label %zend_hash_find_ptr.exit, label %zend_hash_find_ptr.exit.sink.split

zend_hash_find_ptr.exit.sink.split:               ; preds = %25, %3
  %.sink = phi ptr [ %9, %3 ], [ %27, %25 ]
  %28 = load ptr, ptr %.sink, align 8, !tbaa !37, !nonnull !40, !noundef !40
  br label %zend_hash_find_ptr.exit

zend_hash_find_ptr.exit:                          ; preds = %zend_hash_find_ptr.exit.sink.split, %25, %10, %21, %16
  %.1 = phi ptr [ null, %10 ], [ null, %21 ], [ null, %16 ], [ null, %25 ], [ %28, %zend_hash_find_ptr.exit.sink.split ]
  %29 = getelementptr inbounds nuw i8, ptr %5, i64 4
  %30 = load i32, ptr %29, align 4, !tbaa !37
  %31 = and i32 %30, 64
  %.not.i32 = icmp eq i32 %31, 0
  br i1 %.not.i32, label %32, label %zend_string_release_ex.exit

32:                                               ; preds = %zend_hash_find_ptr.exit
  %33 = load i32, ptr %5, align 4, !tbaa !38
  %34 = icmp ne i32 %33, 0
  tail call void @llvm.assume(i1 %34)
  %35 = add i32 %33, -1
  store i32 %35, ptr %5, align 4, !tbaa !38
  %36 = icmp eq i32 %35, 0
  br i1 %36, label %37, label %zend_string_release_ex.exit

37:                                               ; preds = %32
  tail call void @_efree(ptr noundef nonnull %5) #17
  br label %zend_string_release_ex.exit

zend_string_release_ex.exit:                      ; preds = %zend_hash_find_ptr.exit, %32, %37
  %.not27 = icmp eq ptr %.1, null
  br i1 %.not27, label %38, label %40

38:                                               ; preds = %zend_string_release_ex.exit
  %39 = tail call ptr @zend_std_get_method(ptr noundef nonnull %0, ptr noundef %1, ptr noundef %2) #17
  br label %40

40:                                               ; preds = %zend_string_release_ex.exit, %38
  %.2 = phi ptr [ %.1, %zend_string_release_ex.exit ], [ %39, %38 ]
  ret ptr %.2
}